target datalayout = "e-m:e-p270:32:32-p271:32:32-p272:64:64-i64:64-i128:128-f80:128-n8:16:32:64-S128"
target triple = "x86_64-pc-linux-gnu"

%struct.tMPI_Thread_key_t = type { %struct.tMPI_Atomic, ptr }
%struct.tMPI_Atomic = type { i32, [60 x i8] }
%struct.tmpi_thread = type { ptr, %struct.recv_envelope_list, ptr, %struct.free_envelope_list, %struct.tMPI_Atomic, %struct.tMPI_Event_t, %struct.req_list, ptr, ptr, ptr, ptr, i32, ptr }
%struct.recv_envelope_list = type { ptr, %struct.envelope }
%struct.envelope = type { i32, ptr, ptr, ptr, ptr, i64, ptr, i32, %struct.tMPI_Atomic, i32, ptr, ptr, i32, ptr, ptr, ptr, ptr }
%struct.free_envelope_list = type { ptr, ptr }
%struct.tMPI_Event_t = type { %struct.tMPI_Atomic, i32 }
%struct.req_list = type { ptr, ptr }
%struct.tmpi_req_ = type { i32, ptr, ptr, ptr, i32, i32, i64, i32, ptr, ptr }

@id_key = external global %struct.tMPI_Thread_key_t, align 8

; Function Attrs: mustprogress uwtable
define noundef i32 @_Z9tMPI_WaitPP9tmpi_req_P12tmpi_status_(ptr noundef %0, ptr noundef %1) #0 {
  %3 = alloca i32, align 4
  %4 = alloca ptr, align 8
  %5 = alloca ptr, align 8
  %6 = alloca i32, align 4
  %7 = alloca ptr, align 8
  %8 = alloca %struct.tMPI_Thread_key_t, align 8
  %9 = alloca ptr, align 8
  %10 = alloca ptr, align 8
  %11 = alloca i32, align 4
  store ptr %0, ptr %4, align 8, !tbaa !3
  store ptr %1, ptr %5, align 8, !tbaa !9
  call void @llvm.lifetime.start.p0(i64 4, ptr %6) #4
  store i32 0, ptr %6, align 4, !tbaa !11
  call void @llvm.lifetime.start.p0(i64 8, ptr %7) #4
  call void @llvm.memcpy.p0.p0.i64(ptr align 8 %8, ptr align 8 @id_key, i64 72, i1 false), !tbaa.struct !13
  %12 = call noundef ptr @_Z23tMPI_Thread_getspecific17tMPI_Thread_key_t(ptr noundef byval(%struct.tMPI_Thread_key_t) align 8 %8)
  store ptr %12, ptr %7, align 8, !tbaa !17
  call void @llvm.lifetime.start.p0(i64 8, ptr %9) #4
  %13 = load ptr, ptr %7, align 8, !tbaa !17
  %14 = getelementptr inbounds nuw %struct.tmpi_thread, ptr %13, i32 0, i32 6
  store ptr %14, ptr %9, align 8, !tbaa !19
  call void @llvm.lifetime.start.p0(i64 8, ptr %10) #4
  %15 = load ptr, ptr %4, align 8, !tbaa !3
  %16 = icmp ne ptr %15, null
  br i1 %16, label %17, label %21

17:                                               ; preds = %2
  %18 = load ptr, ptr %4, align 8, !tbaa !3
  %19 = load ptr, ptr %18, align 8, !tbaa !21
  %20 = icmp ne ptr %19, null
  br i1 %20, label %22, label %21

21:                                               ; preds = %17, %2
  store i32 0, ptr %3, align 4
  store i32 1, ptr %11, align 4
  br label %52

22:                                               ; preds = %17
  %23 = load ptr, ptr %4, align 8, !tbaa !3
  %24 = load ptr, ptr %23, align 8, !tbaa !21
  store ptr %24, ptr %10, align 8, !tbaa !21
  %25 = load ptr, ptr %10, align 8, !tbaa !21
  %26 = load ptr, ptr %10, align 8, !tbaa !21
  %27 = getelementptr inbounds nuw %struct.tmpi_req_, ptr %26, i32 0, i32 8
  store ptr %25, ptr %27, align 8, !tbaa !23
  %28 = load ptr, ptr %10, align 8, !tbaa !21
  %29 = load ptr, ptr %10, align 8, !tbaa !21
  %30 = getelementptr inbounds nuw %struct.tmpi_req_, ptr %29, i32 0, i32 9
  store ptr %28, ptr %30, align 8, !tbaa !28
  br label %31

31:                                               ; preds = %39, %22
  %32 = load ptr, ptr %7, align 8, !tbaa !17
  %33 = load ptr, ptr %10, align 8, !tbaa !21
  %34 = call noundef i32 @_Z16tMPI_Test_singleP11tmpi_threadP9tmpi_req_(ptr noundef %32, ptr noundef %33)
  %35 = icmp ne i32 %34, 0
  br i1 %35, label %36, label %37

36:                                               ; preds = %31
  br label %40

37:                                               ; preds = %31
  %38 = load ptr, ptr %7, align 8, !tbaa !17
  call void @_Z26tMPI_Wait_process_incomingP11tmpi_thread(ptr noundef %38)
  br label %39

39:                                               ; preds = %37
  br i1 true, label %31, label %40, !llvm.loop !29

40:                                               ; preds = %39, %36
  %41 = load ptr, ptr %10, align 8, !tbaa !21
  %42 = getelementptr inbounds nuw %struct.tmpi_req_, ptr %41, i32 0, i32 1
  store ptr null, ptr %42, align 8, !tbaa !31
  %43 = load ptr, ptr %10, align 8, !tbaa !21
  %44 = getelementptr inbounds nuw %struct.tmpi_req_, ptr %43, i32 0, i32 5
  %45 = load i32, ptr %44, align 4, !tbaa !32
  store i32 %45, ptr %6, align 4, !tbaa !11
  %46 = load ptr, ptr %10, align 8, !tbaa !21
  %47 = load ptr, ptr %5, align 8, !tbaa !9
  call void @_Z15tMPI_Set_statusP9tmpi_req_P12tmpi_status_(ptr noundef %46, ptr noundef %47)
  %48 = load ptr, ptr %9, align 8, !tbaa !19
  %49 = load ptr, ptr %4, align 8, !tbaa !3
  %50 = load ptr, ptr %49, align 8, !tbaa !21
  call void @_Z15tMPI_Return_reqP8req_listP9tmpi_req_(ptr noundef %48, ptr noundef %50)
  %51 = load i32, ptr %6, align 4, !tbaa !11
  store i32 %51, ptr %3, align 4
  store i32 1, ptr %11, align 4
  br label %52

52:                                               ; preds = %40, %21
  call void @llvm.lifetime.end.p0(i64 8, ptr %10) #4
  call void @llvm.lifetime.end.p0(i64 8, ptr %9) #4
  call void @llvm.lifetime.end.p0(i64 8, ptr %7) #4
  call void @llvm.lifetime.end.p0(i64 4, ptr %6) #4
  %53 = load i32, ptr %3, align 4
  ret i32 %53
}