; Function Attrs: mustprogress uwtable
define noundef i32 @_Z9tMPI_WaitPP9tmpi_req_P12tmpi_status_(ptr noundef readonly %0, ptr noundef %1) local_unnamed_addr #0 {
  %3 = tail call noundef ptr @_Z23tMPI_Thread_getspecific17tMPI_Thread_key_t(ptr noundef nonnull byval(%struct.tMPI_Thread_key_t) align 8 @id_key)
  %4 = getelementptr inbounds nuw i8, ptr %3, i64 360
  %.not = icmp eq ptr %0, null
  br i1 %.not, label %16, label %5

5:                                                ; preds = %2
  %6 = load ptr, ptr %0, align 8, !tbaa !3
  %.not20 = icmp eq ptr %6, null
  br i1 %.not20, label %16, label %7

7:                                                ; preds = %5
  %8 = getelementptr inbounds nuw i8, ptr %6, i64 56
  store ptr %6, ptr %8, align 8, !tbaa !8
  %9 = getelementptr inbounds nuw i8, ptr %6, i64 64
  store ptr %6, ptr %9, align 8, !tbaa !15
  %10 = tail call noundef i32 @_Z16tMPI_Test_singleP11tmpi_threadP9tmpi_req_(ptr noundef %3, ptr noundef nonnull %6)
  %.not2122 = icmp eq i32 %10, 0
  br i1 %.not2122, label %.lr.ph, label %._crit_edge

.lr.ph:                                           ; preds = %7, %.lr.ph
  tail call void @_Z26tMPI_Wait_process_incomingP11tmpi_thread(ptr noundef %3)
  %11 = tail call noundef i32 @_Z16tMPI_Test_singleP11tmpi_threadP9tmpi_req_(ptr noundef %3, ptr noundef nonnull %6)
  %.not21 = icmp eq i32 %11, 0
  br i1 %.not21, label %.lr.ph, label %._crit_edge, !llvm.loop !16

._crit_edge:                                      ; preds = %.lr.ph, %7
  %12 = getelementptr inbounds nuw i8, ptr %6, i64 8
  store ptr null, ptr %12, align 8, !tbaa !18
  %13 = getelementptr inbounds nuw i8, ptr %6, i64 36
  %14 = load i32, ptr %13, align 4, !tbaa !19
  tail call void @_Z15tMPI_Set_statusP9tmpi_req_P12tmpi_status_(ptr noundef nonnull %6, ptr noundef %1)
  %15 = load ptr, ptr %0, align 8, !tbaa !3
  tail call void @_Z15tMPI_Return_reqP8req_listP9tmpi_req_(ptr noundef nonnull %4, ptr noundef %15)
  br label %16

16:                                               ; preds = %2, %5, %._crit_edge
  %.0 = phi i32 [ %14, %._crit_edge ], [ 0, %5 ], [ 0, %2 ]
  ret i32 %.0
}